target datalayout = "e-m:e-p270:32:32-p271:32:32-p272:64:64-i64:64-i128:128-f80:128-n8:16:32:64-S128"
target triple = "x86_64-pc-linux-gnu"

%"class.icu_77::ResourceBundle" = type { %"class.icu_77::UObject", ptr, ptr }
%"class.icu_77::UObject" = type { ptr }

; Function Attrs: mustprogress uwtable
define noundef nonnull align 8 dereferenceable(24) ptr @_ZN6icu_7714ResourceBundleaSERKS0_(ptr noundef nonnull align 8 dereferenceable(24) %0, ptr noundef nonnull align 8 dereferenceable(24) %1) #1 align 2 {
  %3 = alloca ptr, align 8
  %4 = alloca ptr, align 8
  %5 = alloca ptr, align 8
  %6 = alloca i32, align 4
  store ptr %0, ptr %4, align 8, !tbaa !3
  store ptr %1, ptr %5, align 8, !tbaa !3
  %7 = load ptr, ptr %4, align 8
  %8 = load ptr, ptr %5, align 8, !tbaa !3
  %9 = icmp eq ptr %7, %8
  br i1 %9, label %10, label %11

10:                                               ; preds = %2
  store ptr %7, ptr %3, align 8
  br label %47

11:                                               ; preds = %2
  %12 = getelementptr inbounds nuw %"class.icu_77::ResourceBundle", ptr %7, i32 0, i32 1
  %13 = load ptr, ptr %12, align 8, !tbaa !16
  %14 = icmp ne ptr %13, null
  br i1 %14, label %15, label %19

15:                                               ; preds = %11
  %16 = getelementptr inbounds nuw %"class.icu_77::ResourceBundle", ptr %7, i32 0, i32 1
  %17 = load ptr, ptr %16, align 8, !tbaa !16
  call void @ures_close_77(ptr noundef %17)
  %18 = getelementptr inbounds nuw %"class.icu_77::ResourceBundle", ptr %7, i32 0, i32 1
  store ptr null, ptr %18, align 8, !tbaa !16
  br label %19

19:                                               ; preds = %15, %11
  %20 = getelementptr inbounds nuw %"class.icu_77::ResourceBundle", ptr %7, i32 0, i32 2
  %21 = load ptr, ptr %20, align 8, !tbaa !11
  %22 = icmp ne ptr %21, null
  br i1 %22, label %23, label %33

23:                                               ; preds = %19
  %24 = getelementptr inbounds nuw %"class.icu_77::ResourceBundle", ptr %7, i32 0, i32 2
  %25 = load ptr, ptr %24, align 8, !tbaa !11
  %26 = icmp eq ptr %25, null
  br i1 %26, label %31, label %27

27:                                               ; preds = %23
  %28 = load ptr, ptr %25, align 8, !tbaa !9
  %29 = getelementptr inbounds ptr, ptr %28, i64 1
  %30 = load ptr, ptr %29, align 8
  call void %30(ptr noundef nonnull align 8 dereferenceable(217) %25) #8
  br label %31

31:                                               ; preds = %27, %23
  %32 = getelementptr inbounds nuw %"class.icu_77::ResourceBundle", ptr %7, i32 0, i32 2
  store ptr null, ptr %32, align 8, !tbaa !11
  br label %33

33:                                               ; preds = %31, %19
  call void @llvm.lifetime.start.p0(i64 4, ptr %6) #8
  store i32 0, ptr %6, align 4, !tbaa !24
  %34 = load ptr, ptr %5, align 8, !tbaa !3
  %35 = getelementptr inbounds nuw %"class.icu_77::ResourceBundle", ptr %34, i32 0, i32 1
  %36 = load ptr, ptr %35, align 8, !tbaa !16
  %37 = icmp ne ptr %36, null
  br i1 %37, label %38, label %44

38:                                               ; preds = %33
  %39 = load ptr, ptr %5, align 8, !tbaa !3
  %40 = getelementptr inbounds nuw %"class.icu_77::ResourceBundle", ptr %39, i32 0, i32 1
  %41 = load ptr, ptr %40, align 8, !tbaa !16
  %42 = call ptr @ures_copyResb_77(ptr noundef null, ptr noundef %41, ptr noundef %6)
  %43 = getelementptr inbounds nuw %"class.icu_77::ResourceBundle", ptr %7, i32 0, i32 1
  store ptr %42, ptr %43, align 8, !tbaa !16
  br label %46

44:                                               ; preds = %33
  %45 = getelementptr inbounds nuw %"class.icu_77::ResourceBundle", ptr %7, i32 0, i32 1
  store ptr null, ptr %45, align 8, !tbaa !16
  br label %46

46:                                               ; preds = %44, %38
  store ptr %7, ptr %3, align 8
  call void @llvm.lifetime.end.p0(i64 4, ptr %6) #8
  br label %47

47:                                               ; preds = %46, %10
  %48 = load ptr, ptr %3, align 8
  ret ptr %48
}