; Function Attrs: mustprogress uwtable
define noundef nonnull align 8 dereferenceable(24) ptr @_ZN6icu_7714ResourceBundleaSERKS0_(ptr noundef nonnull returned align 8 dereferenceable(24) %0, ptr noundef nonnull readonly align 8 dereferenceable(24) %1) local_unnamed_addr #1 align 2 {
  %3 = alloca i32, align 4
  %4 = icmp eq ptr %0, %1
  br i1 %4, label %22, label %5

5:                                                ; preds = %2
  %6 = getelementptr inbounds nuw i8, ptr %0, i64 8
  %7 = load ptr, ptr %6, align 8, !tbaa !17
  %.not = icmp eq ptr %7, null
  br i1 %.not, label %9, label %8

8:                                                ; preds = %5
  tail call void @ures_close_77(ptr noundef nonnull %7)
  store ptr null, ptr %6, align 8, !tbaa !17
  br label %9

9:                                                ; preds = %8, %5
  %10 = getelementptr inbounds nuw i8, ptr %0, i64 16
  %11 = load ptr, ptr %10, align 8, !tbaa !6
  %.not9 = icmp eq ptr %11, null
  br i1 %.not9, label %16, label %12

12:                                               ; preds = %9
  %13 = load ptr, ptr %11, align 8, !tbaa !3
  %14 = getelementptr inbounds nuw i8, ptr %13, i64 8
  %15 = load ptr, ptr %14, align 8
  tail call void %15(ptr noundef nonnull align 8 dereferenceable(217) %11) #8
  store ptr null, ptr %10, align 8, !tbaa !6
  br label %16

16:                                               ; preds = %12, %9
  call void @llvm.lifetime.start.p0(i64 4, ptr nonnull %3) #8
  store i32 0, ptr %3, align 4, !tbaa !18
  %17 = getelementptr inbounds nuw i8, ptr %1, i64 8
  %18 = load ptr, ptr %17, align 8, !tbaa !17
  %.not10 = icmp eq ptr %18, null
  br i1 %.not10, label %21, label %19

19:                                               ; preds = %16
  %20 = call ptr @ures_copyResb_77(ptr noundef null, ptr noundef nonnull %18, ptr noundef nonnull %3)
  br label %21

21:                                               ; preds = %16, %19
  %storemerge = phi ptr [ %20, %19 ], [ null, %16 ]
  store ptr %storemerge, ptr %6, align 8, !tbaa !17
  call void @llvm.lifetime.end.p0(i64 4, ptr nonnull %3) #8
  br label %22

22:                                               ; preds = %2, %21
  ret ptr %0
}